; Function Attrs: nounwind uwtable
define ptr @l_List_forIn_x27_loop___at_Lean_Elab_Deriving_ToExpr_mkToExprBody_mkAlts___spec__7___boxed(ptr noundef readonly captures(none) %0) local_unnamed_addr #0 {
  %2 = load ptr, ptr %0, align 8, !tbaa !4
  %3 = getelementptr inbounds nuw i8, ptr %0, i64 8
  %4 = load ptr, ptr %3, align 8, !tbaa !4
  %5 = getelementptr inbounds nuw i8, ptr %0, i64 16
  %6 = load ptr, ptr %5, align 8, !tbaa !4
  %7 = getelementptr inbounds nuw i8, ptr %0, i64 24
  %8 = load ptr, ptr %7, align 8, !tbaa !4
  %9 = getelementptr inbounds nuw i8, ptr %0, i64 32
  %10 = load ptr, ptr %9, align 8, !tbaa !4
  %11 = getelementptr inbounds nuw i8, ptr %0, i64 40
  %12 = load ptr, ptr %11, align 8, !tbaa !4
  %13 = getelementptr inbounds nuw i8, ptr %0, i64 48
  %14 = load ptr, ptr %13, align 8, !tbaa !4
  %15 = getelementptr inbounds nuw i8, ptr %0, i64 56
  %16 = load ptr, ptr %15, align 8, !tbaa !4
  %17 = getelementptr inbounds nuw i8, ptr %0, i64 64
  %18 = load ptr, ptr %17, align 8, !tbaa !4
  %19 = getelementptr inbounds nuw i8, ptr %0, i64 72
  %20 = load ptr, ptr %19, align 8, !tbaa !4
  %21 = getelementptr inbounds nuw i8, ptr %0, i64 80
  %22 = load ptr, ptr %21, align 8, !tbaa !4
  %23 = getelementptr inbounds nuw i8, ptr %0, i64 96
  %24 = load ptr, ptr %23, align 8, !tbaa !4
  %25 = getelementptr inbounds nuw i8, ptr %0, i64 104
  %26 = load ptr, ptr %25, align 8, !tbaa !4
  %27 = getelementptr inbounds nuw i8, ptr %0, i64 112
  %28 = load ptr, ptr %27, align 8, !tbaa !4
  %29 = getelementptr inbounds nuw i8, ptr %0, i64 120
  %30 = load ptr, ptr %29, align 8, !tbaa !4
  %31 = getelementptr inbounds nuw i8, ptr %0, i64 128
  %32 = load ptr, ptr %31, align 8, !tbaa !4
  %33 = getelementptr inbounds nuw i8, ptr %0, i64 136
  %34 = load ptr, ptr %33, align 8, !tbaa !4
  %35 = getelementptr inbounds nuw i8, ptr %0, i64 144
  %36 = load ptr, ptr %35, align 8, !tbaa !4
  %37 = getelementptr i8, ptr %10, i64 8
  %.val = load i64, ptr %37, align 8, !tbaa !12
  %38 = ptrtoint ptr %10 to i64
  %39 = and i64 %38, 1
  %.not = icmp eq i64 %39, 0
  br i1 %.not, label %40, label %lean_dec.exit45

40:                                               ; preds = %1
  %41 = load i32, ptr %10, align 4, !tbaa !8
  %42 = icmp sgt i32 %41, 1
  br i1 %42, label %43, label %45, !prof !11

43:                                               ; preds = %40
  %44 = add nsw i32 %41, -1
  store i32 %44, ptr %10, align 4, !tbaa !8
  br label %lean_dec.exit45

45:                                               ; preds = %40
  %.not.i = icmp eq i32 %41, 0
  br i1 %.not.i, label %lean_dec.exit45, label %46

46:                                               ; preds = %45
  tail call void @lean_dec_ref_cold(ptr noundef nonnull %10) #5
  br label %lean_dec.exit45

lean_dec.exit45:                                  ; preds = %46, %45, %43, %1
  %47 = tail call ptr @l_List_forIn_x27_loop___at_Lean_Elab_Deriving_ToExpr_mkToExprBody_mkAlts___spec__7(ptr noundef %2, ptr noundef %4, ptr noundef %6, ptr noundef %8, i64 noundef %.val, ptr noundef %12, ptr poison, ptr poison, ptr poison, ptr noundef %20, ptr noundef %22, ptr poison, ptr noundef %24, ptr noundef %26, ptr noundef %28, ptr noundef %30, ptr noundef %32, ptr noundef %34, ptr noundef %36)
  %48 = ptrtoint ptr %18 to i64
  %49 = and i64 %48, 1
  %.not52 = icmp eq i64 %49, 0
  br i1 %.not52, label %50, label %lean_dec.exit44

50:                                               ; preds = %lean_dec.exit45
  %51 = load i32, ptr %18, align 4, !tbaa !8
  %52 = icmp sgt i32 %51, 1
  br i1 %52, label %53, label %55, !prof !11

53:                                               ; preds = %50
  %54 = add nsw i32 %51, -1
  store i32 %54, ptr %18, align 4, !tbaa !8
  br label %lean_dec.exit44

55:                                               ; preds = %50
  %.not.i46 = icmp eq i32 %51, 0
  br i1 %.not.i46, label %lean_dec.exit44, label %56

56:                                               ; preds = %55
  tail call void @lean_dec_ref_cold(ptr noundef nonnull %18) #5
  br label %lean_dec.exit44

lean_dec.exit44:                                  ; preds = %56, %55, %53, %lean_dec.exit45
  %57 = ptrtoint ptr %16 to i64
  %58 = and i64 %57, 1
  %.not53 = icmp eq i64 %58, 0
  br i1 %.not53, label %59, label %lean_dec.exit43

59:                                               ; preds = %lean_dec.exit44
  %60 = load i32, ptr %16, align 4, !tbaa !8
  %61 = icmp sgt i32 %60, 1
  br i1 %61, label %62, label %64, !prof !11

62:                                               ; preds = %59
  %63 = add nsw i32 %60, -1
  store i32 %63, ptr %16, align 4, !tbaa !8
  br label %lean_dec.exit43

64:                                               ; preds = %59
  %.not.i48 = icmp eq i32 %60, 0
  br i1 %.not.i48, label %lean_dec.exit43, label %65

65:                                               ; preds = %64
  tail call void @lean_dec_ref_cold(ptr noundef nonnull %16) #5
  br label %lean_dec.exit43

lean_dec.exit43:                                  ; preds = %65, %64, %62, %lean_dec.exit44
  %66 = ptrtoint ptr %14 to i64
  %67 = and i64 %66, 1
  %.not54 = icmp eq i64 %67, 0
  br i1 %.not54, label %68, label %lean_dec.exit

68:                                               ; preds = %lean_dec.exit43
  %69 = load i32, ptr %14, align 4, !tbaa !8
  %70 = icmp sgt i32 %69, 1
  br i1 %70, label %71, label %73, !prof !11

71:                                               ; preds = %68
  %72 = add nsw i32 %69, -1
  store i32 %72, ptr %14, align 4, !tbaa !8
  br label %lean_dec.exit

73:                                               ; preds = %68
  %.not.i50 = icmp eq i32 %69, 0
  br i1 %.not.i50, label %lean_dec.exit, label %74

74:                                               ; preds = %73
  tail call void @lean_dec_ref_cold(ptr noundef nonnull %14) #5
  br label %lean_dec.exit

lean_dec.exit:                                    ; preds = %74, %73, %71, %lean_dec.exit43
  ret ptr %47
}